target datalayout = "e-m:e-p270:32:32-p271:32:32-p272:64:64-i64:64-i128:128-f80:128-n8:16:32:64-S128"
target triple = "x86_64-unknown-linux-gnu"

%struct.Visitor = type { ptr, ptr, ptr, ptr, ptr, ptr, ptr, ptr, ptr, ptr, ptr, ptr, ptr, ptr, ptr, ptr, ptr, ptr, ptr, ptr, i32, %struct.CompatPolicy, ptr, ptr }
%struct.CompatPolicy = type { i8, i32, i8, i32, i8, i32, i8, i32 }
%struct.timeval = type { i64, i64 }

@.str.1 = private unnamed_addr constant [31 x i8] c"../qemu/qapi/qapi-visit-core.c\00", align 1
@.str.12 = private unnamed_addr constant [9 x i8] c"uint16_t\00", align 1
@trace_events_enabled_count = external global i32, align 4
@message_with_timestamp = external global i8, align 1
@qemu_loglevel = external global i32, align 4
@.str.51 = private unnamed_addr constant [41 x i8] c"v->type == VISITOR_INPUT || value <= max\00", align 1
@__PRETTY_FUNCTION__.visit_type_uintN = private unnamed_addr constant [94 x i8] c"_Bool visit_type_uintN(Visitor *, uint64_t *, const char *, uint64_t, const char *, Error **)\00", align 1
@.str.52 = private unnamed_addr constant [25 x i8] c"v->type == VISITOR_INPUT\00", align 1
@__func__.visit_type_uintN = private unnamed_addr constant [17 x i8] c"visit_type_uintN\00", align 1
@.str.53 = private unnamed_addr constant [26 x i8] c"Parameter '%s' expects %s\00", align 1
@.str.54 = private unnamed_addr constant [5 x i8] c"null\00", align 1
@_TRACE_VISIT_TYPE_UINT16_DSTATE = external global i16, align 2
@.str.55 = private unnamed_addr constant [52 x i8] c"%d@%zu.%06zu:visit_type_uint16 v=%p name=%s obj=%p\0A\00", align 1
@.str.56 = private unnamed_addr constant [39 x i8] c"visit_type_uint16 v=%p name=%s obj=%p\0A\00", align 1

; Function Attrs: nounwind sspstrong uwtable
define internal zeroext i1 @qemu_loglevel_mask(i32 noundef %mask) #0 {
entry:
  %mask.addr = alloca i32, align 4
  store i32 %mask, ptr %mask.addr, align 4
  %0 = load i32, ptr @qemu_loglevel, align 4
  %1 = load i32, ptr %mask.addr, align 4
  %and = and i32 %0, %1
  %cmp = icmp ne i32 %and, 0
  ret i1 %cmp
}

; Function Attrs: nounwind sspstrong uwtable
define internal void @_nocheck__trace_visit_type_uint16(ptr noundef %v, ptr noundef %name, ptr noundef %obj) #0 {
entry:
  %v.addr = alloca ptr, align 8
  %name.addr = alloca ptr, align 8
  %obj.addr = alloca ptr, align 8
  %_now = alloca %struct.timeval, align 8
  store ptr %v, ptr %v.addr, align 8
  store ptr %name, ptr %name.addr, align 8
  store ptr %obj, ptr %obj.addr, align 8
  %0 = load i32, ptr @trace_events_enabled_count, align 4
  %tobool = icmp ne i32 %0, 0
  %lnot = xor i1 %tobool, true
  %lnot1 = xor i1 %lnot, true
  %lnot.ext = zext i1 %lnot1 to i32
  %conv = sext i32 %lnot.ext to i64
  %tobool2 = icmp ne i64 %conv, 0
  br i1 %tobool2, label %land.lhs.true, label %if.end11

land.lhs.true:                                    ; preds = %entry
  %1 = load i16, ptr @_TRACE_VISIT_TYPE_UINT16_DSTATE, align 2
  %conv3 = zext i16 %1 to i32
  %tobool4 = icmp ne i32 %conv3, 0
  br i1 %tobool4, label %land.lhs.true5, label %if.end11

land.lhs.true5:                                   ; preds = %land.lhs.true
  %call = call zeroext i1 @qemu_loglevel_mask(i32 noundef 32768)
  br i1 %call, label %if.then, label %if.end11

if.then:                                          ; preds = %land.lhs.true5
  %2 = load i8, ptr @message_with_timestamp, align 1
  %tobool7 = trunc i8 %2 to i1
  br i1 %tobool7, label %if.then8, label %if.else

if.then8:                                         ; preds = %if.then
  %call9 = call i32 @gettimeofday(ptr noundef %_now, ptr noundef null) #6
  %call10 = call i32 @qemu_get_thread_id()
  %tv_sec = getelementptr inbounds %struct.timeval, ptr %_now, i32 0, i32 0
  %3 = load i64, ptr %tv_sec, align 8
  %tv_usec = getelementptr inbounds %struct.timeval, ptr %_now, i32 0, i32 1
  %4 = load i64, ptr %tv_usec, align 8
  %5 = load ptr, ptr %v.addr, align 8
  %6 = load ptr, ptr %name.addr, align 8
  %7 = load ptr, ptr %obj.addr, align 8
  call void (ptr, ...) @qemu_log(ptr noundef @.str.55, i32 noundef %call10, i64 noundef %3, i64 noundef %4, ptr noundef %5, ptr noundef %6, ptr noundef %7)
  br label %if.end

if.else:                                          ; preds = %if.then
  %8 = load ptr, ptr %v.addr, align 8
  %9 = load ptr, ptr %name.addr, align 8
  %10 = load ptr, ptr %obj.addr, align 8
  call void (ptr, ...) @qemu_log(ptr noundef @.str.56, ptr noundef %8, ptr noundef %9, ptr noundef %10)
  br label %if.end

if.end:                                           ; preds = %if.else, %if.then8
  br label %if.end11

if.end11:                                         ; preds = %if.end, %land.lhs.true5, %land.lhs.true, %entry
  ret void
}

; Function Attrs: nounwind sspstrong uwtable
define internal zeroext i1 @visit_type_uintN(ptr noundef %v, ptr noundef %obj, ptr noundef %name, i64 noundef %max, ptr noundef %type, ptr noundef %errp) #0 {
entry:
  %retval = alloca i1, align 1
  %v.addr = alloca ptr, align 8
  %obj.addr = alloca ptr, align 8
  %name.addr = alloca ptr, align 8
  %max.addr = alloca i64, align 8
  %type.addr = alloca ptr, align 8
  %errp.addr = alloca ptr, align 8
  %value = alloca i64, align 8
  store ptr %v, ptr %v.addr, align 8
  store ptr %obj, ptr %obj.addr, align 8
  store ptr %name, ptr %name.addr, align 8
  store i64 %max, ptr %max.addr, align 8
  store ptr %type, ptr %type.addr, align 8
  store ptr %errp, ptr %errp.addr, align 8
  %0 = load ptr, ptr %obj.addr, align 8
  %1 = load i64, ptr %0, align 8
  store i64 %1, ptr %value, align 8
  %2 = load ptr, ptr %v.addr, align 8
  %type1 = getelementptr inbounds %struct.Visitor, ptr %2, i32 0, i32 20
  %3 = load i32, ptr %type1, align 8
  %cmp = icmp eq i32 %3, 1
  br i1 %cmp, label %if.then, label %lor.lhs.false

lor.lhs.false:                                    ; preds = %entry
  %4 = load i64, ptr %value, align 8
  %5 = load i64, ptr %max.addr, align 8
  %cmp2 = icmp ule i64 %4, %5
  br i1 %cmp2, label %if.then, label %if.else

if.then:                                          ; preds = %lor.lhs.false, %entry
  br label %if.end

if.else:                                          ; preds = %lor.lhs.false
  call void @__assert_fail(ptr noundef @.str.51, ptr noundef @.str.1, i32 noundef 190, ptr noundef @__PRETTY_FUNCTION__.visit_type_uintN) #5
  unreachable

if.end:                                           ; preds = %if.then
  %6 = load ptr, ptr %v.addr, align 8
  %type_uint64 = getelementptr inbounds %struct.Visitor, ptr %6, i32 0, i32 10
  %7 = load ptr, ptr %type_uint64, align 8
  %8 = load ptr, ptr %v.addr, align 8
  %9 = load ptr, ptr %name.addr, align 8
  %10 = load ptr, ptr %errp.addr, align 8
  %call = call zeroext i1 %7(ptr noundef %8, ptr noundef %9, ptr noundef %value, ptr noundef %10)
  br i1 %call, label %if.end4, label %if.then3

if.then3:                                         ; preds = %if.end
  store i1 false, ptr %retval, align 1
  br label %return

if.end4:                                          ; preds = %if.end
  %11 = load i64, ptr %value, align 8
  %12 = load i64, ptr %max.addr, align 8
  %cmp5 = icmp ugt i64 %11, %12
  br i1 %cmp5, label %if.then6, label %if.end12

if.then6:                                         ; preds = %if.end4
  %13 = load ptr, ptr %v.addr, align 8
  %type7 = getelementptr inbounds %struct.Visitor, ptr %13, i32 0, i32 20
  %14 = load i32, ptr %type7, align 8
  %cmp8 = icmp eq i32 %14, 1
  br i1 %cmp8, label %if.then9, label %if.else10

if.then9:                                         ; preds = %if.then6
  br label %if.end11

if.else10:                                        ; preds = %if.then6
  call void @__assert_fail(ptr noundef @.str.52, ptr noundef @.str.1, i32 noundef 196, ptr noundef @__PRETTY_FUNCTION__.visit_type_uintN) #5
  unreachable

if.end11:                                         ; preds = %if.then9
  %15 = load ptr, ptr %errp.addr, align 8
  %16 = load ptr, ptr %name.addr, align 8
  %tobool = icmp ne ptr %16, null
  br i1 %tobool, label %cond.true, label %cond.false

cond.true:                                        ; preds = %if.end11
  %17 = load ptr, ptr %name.addr, align 8
  br label %cond.end

cond.false:                                       ; preds = %if.end11
  br label %cond.end

cond.end:                                         ; preds = %cond.false, %cond.true
  %cond = phi ptr [ %17, %cond.true ], [ @.str.54, %cond.false ]
  %18 = load ptr, ptr %type.addr, align 8
  call void (ptr, ptr, i32, ptr, ptr, ...) @error_setg_internal(ptr noundef %15, ptr noundef @.str.1, i32 noundef 198, ptr noundef @__func__.visit_type_uintN, ptr noundef @.str.53, ptr noundef %cond, ptr noundef %18)
  store i1 false, ptr %retval, align 1
  br label %return

if.end12:                                         ; preds = %if.end4
  %19 = load i64, ptr %value, align 8
  %20 = load ptr, ptr %obj.addr, align 8
  store i64 %19, ptr %20, align 8
  store i1 true, ptr %retval, align 1
  br label %return

return:                                           ; preds = %if.end12, %cond.end, %if.then3
  %21 = load i1, ptr %retval, align 1
  ret i1 %21
}

; Function Attrs: nounwind sspstrong uwtable
define internal void @trace_visit_type_uint16(ptr noundef %v, ptr noundef %name, ptr noundef %obj) #0 {
entry:
  %v.addr = alloca ptr, align 8
  %name.addr = alloca ptr, align 8
  %obj.addr = alloca ptr, align 8
  store ptr %v, ptr %v.addr, align 8
  store ptr %name, ptr %name.addr, align 8
  store ptr %obj, ptr %obj.addr, align 8
  %0 = load ptr, ptr %v.addr, align 8
  %1 = load ptr, ptr %name.addr, align 8
  %2 = load ptr, ptr %obj.addr, align 8
  call void @_nocheck__trace_visit_type_uint16(ptr noundef %0, ptr noundef %1, ptr noundef %2)
  ret void
}

; Function Attrs: nounwind sspstrong uwtable
define dso_local zeroext i1 @visit_type_uint16(ptr noundef %v, ptr noundef %name, ptr noundef %obj, ptr noundef %errp) #0 {
entry:
  %v.addr = alloca ptr, align 8
  %name.addr = alloca ptr, align 8
  %obj.addr = alloca ptr, align 8
  %errp.addr = alloca ptr, align 8
  %value = alloca i64, align 8
  %ok = alloca i8, align 1
  store ptr %v, ptr %v.addr, align 8
  store ptr %name, ptr %name.addr, align 8
  store ptr %obj, ptr %obj.addr, align 8
  store ptr %errp, ptr %errp.addr, align 8
  %0 = load ptr, ptr %v.addr, align 8
  %1 = load ptr, ptr %name.addr, align 8
  %2 = load ptr, ptr %obj.addr, align 8
  call void @trace_visit_type_uint16(ptr noundef %0, ptr noundef %1, ptr noundef %2)
  %3 = load ptr, ptr %obj.addr, align 8
  %4 = load i16, ptr %3, align 2
  %conv = zext i16 %4 to i64
  store i64 %conv, ptr %value, align 8
  %5 = load ptr, ptr %v.addr, align 8
  %6 = load ptr, ptr %name.addr, align 8
  %7 = load ptr, ptr %errp.addr, align 8
  %call = call zeroext i1 @visit_type_uintN(ptr noundef %5, ptr noundef %value, ptr noundef %6, i64 noundef 65535, ptr noundef @.str.12, ptr noundef %7)
  %frombool = zext i1 %call to i8
  store i8 %frombool, ptr %ok, align 1
  %8 = load i64, ptr %value, align 8
  %conv1 = trunc i64 %8 to i16
  %9 = load ptr, ptr %obj.addr, align 8
  store i16 %conv1, ptr %9, align 2
  %10 = load i8, ptr %ok, align 1
  %tobool = trunc i8 %10 to i1
  ret i1 %tobool
}